(dp0
ccopy_reg
_reconstructor
p1
(cchef
Chef
p2
c__builtin__
object
p3
Ntp4
Rp5
(dp6
S'kitch'
p7
g1
(cmykitch
MyKitch
p8
g3
Ntp9
Rp10
(dp11
S'chef'
p12
g5
sS'patron_orders'
p13
(dp14
sS'market'
p15
g1
(cmarket
Market
p16
g3
Ntp17
Rp18
(dp19
S'itemsOnMarket'
p20
(dp21
g1
(g2
g3
Ntp22
Rp23
(dp24
g7
g1
(g8
g3
Ntp25
Rp26
(dp27
g12
g23
sg13
(dp28
sg15
g1
(g16
g3
Ntp29
Rp30
(dp31
g20
(dp32
g1
(g2
g3
Ntp33
Rp34
(dp35
g7
g1
(g8
g3
Ntp36
Rp37
(dp38
g12
g34
sg13
(dp39
sg15
g1
(g16
g3
Ntp40
Rp41
(dp42
g20
g32
sS'repository'
p43
g1
(crepo
Repository
p44
g3
Ntp45
Rp46
(dp47
S'filename'
p48
S'market.pkl'
p49
sbsbsS'plates'
p50
(dp51
S'Wings'
p52
g1
(cplate
Plate
p53
g3
Ntp54
Rp55
(dp56
S'items'
p57
(lp58
sS'price'
p59
NsS'name'
p60
g52
sbsS'Tacos'
p61
g1
(g53
g3
Ntp62
Rp63
(dp64
g57
(lp65
sg59
Nsg60
g61
sbssbsg60
S'patron2'
p66
sS'cart'
p67
g1
(ccart
Cart
p68
g3
Ntp69
Rp70
(dp71
g12
g34
sS'order'
p72
(lp73
sg15
g1
(g16
g3
Ntp74
Rp75
(dp76
g20
(dp77
sg43
g1
(g44
g3
Ntp78
Rp79
(dp80
g48
g49
sbsbsbsb(lp81
g55
assg43
g1
(g44
g3
Ntp82
Rp83
(dp84
g48
S'market.pkl'
p85
sbsbsg50
(dp86
S'Wings'
p87
g1
(g53
g3
Ntp88
Rp89
(dp90
g57
(lp91
sg59
Nsg60
g87
sbsS'Tacos'
p92
g1
(g53
g3
Ntp93
Rp94
(dp95
g57
(lp96
sg59
Nsg60
g92
sbssbsg60
S'carl'
p97
sg67
g1
(g68
g3
Ntp98
Rp99
(dp100
g12
g23
sg72
(lp101
sg15
g1
(g16
g3
Ntp102
Rp103
(dp104
g20
(dp105
g1
(g2
g3
Ntp106
Rp107
(dp108
g7
g1
(g8
g3
Ntp109
Rp110
(dp111
g12
g107
sg13
(dp112
sg15
g1
(g16
g3
Ntp113
Rp114
(dp115
g20
g105
sg43
g1
(g44
g3
Ntp116
Rp117
(dp118
g48
S'market.pkl'
p119
sbsbsg50
(dp120
S'Wings'
p121
g1
(g53
g3
Ntp122
Rp123
(dp124
g57
(lp125
sg59
Nsg60
g121
sbsS'Tacos'
p126
g1
(g53
g3
Ntp127
Rp128
(dp129
g57
(lp130
sg59
Nsg60
g126
sbssbsg60
S'patron2'
p131
sg67
g1
(g68
g3
Ntp132
Rp133
(dp134
g12
g107
sg72
(lp135
sg15
g1
(g16
g3
Ntp136
Rp137
(dp138
g20
(dp139
sg43
g1
(g44
g3
Ntp140
Rp141
(dp142
g48
g119
sbsbsbsb(lp143
g123
assg43
g1
(g44
g3
Ntp144
Rp145
(dp146
g48
g85
sbsbsbsb(lp147
g89
asg1
(g2
g3
Ntp148
Rp149
(dp150
g7
g1
(g8
g3
Ntp151
Rp152
(dp153
g12
g149
sg13
(dp154
sg15
g1
(g16
g3
Ntp155
Rp156
(dp157
g20
(dp158
g1
(g2
g3
Ntp159
Rp160
(dp161
g7
g1
(g8
g3
Ntp162
Rp163
(dp164
g12
g160
sg13
(dp165
sg15
g1
(g16
g3
Ntp166
Rp167
(dp168
g20
g158
sg43
g1
(g44
g3
Ntp169
Rp170
(dp171
g48
S'market.pkl'
p172
sbsbsg50
(dp173
S'Wings'
p174
g1
(g53
g3
Ntp175
Rp176
(dp177
g57
(lp178
sg59
Nsg60
g174
sbsS'Tacos'
p179
g1
(g53
g3
Ntp180
Rp181
(dp182
g57
(lp183
sg59
Nsg60
g179
sbssbsg60
S'patron2'
p184
sg67
g1
(g68
g3
Ntp185
Rp186
(dp187
g12
g160
sg72
(lp188
sg15
g1
(g16
g3
Ntp189
Rp190
(dp191
g20
(dp192
sg43
g1
(g44
g3
Ntp193
Rp194
(dp195
g48
g172
sbsbsbsb(lp196
g176
assg43
g1
(g44
g3
Ntp197
Rp198
(dp199
g48
g85
sbsbsg50
(dp200
g87
g1
(g53
g3
Ntp201
Rp202
(dp203
g57
(lp204
sg59
Nsg60
g87
sbsg92
g1
(g53
g3
Ntp205
Rp206
(dp207
g57
(lp208
sg59
Nsg60
g92
sbssbsg60
S'fred'
p209
sg67
g1
(g68
g3
Ntp210
Rp211
(dp212
g12
g149
sg72
(lp213
sg15
g1
(g16
g3
Ntp214
Rp215
(dp216
g20
(dp217
g1
(g2
g3
Ntp218
Rp219
(dp220
g7
g1
(g8
g3
Ntp221
Rp222
(dp223
g12
g219
sg13
(dp224
sg15
g1
(g16
g3
Ntp225
Rp226
(dp227
g20
g217
sg43
g1
(g44
g3
Ntp228
Rp229
(dp230
g48
S'market.pkl'
p231
sbsbsg50
(dp232
S'Wings'
p233
g1
(g53
g3
Ntp234
Rp235
(dp236
g57
(lp237
sg59
Nsg60
g233
sbsS'Tacos'
p238
g1
(g53
g3
Ntp239
Rp240
(dp241
g57
(lp242
sg59
Nsg60
g238
sbssbsg60
S'patron2'
p243
sg67
g1
(g68
g3
Ntp244
Rp245
(dp246
g12
g219
sg72
(lp247
sg15
g1
(g16
g3
Ntp248
Rp249
(dp250
g20
(dp251
sg43
g1
(g44
g3
Ntp252
Rp253
(dp254
g48
g231
sbsbsbsb(lp255
g235
assg43
g1
(g44
g3
Ntp256
Rp257
(dp258
g48
g85
sbsbsbsb(lp259
g202
asg1
(g2
g3
Ntp260
Rp261
(dp262
g7
g1
(g8
g3
Ntp263
Rp264
(dp265
g12
g261
sg13
(dp266
sg15
g1
(g16
g3
Ntp267
Rp268
(dp269
g20
g21
sg43
g1
(g44
g3
Ntp270
Rp271
(dp272
g48
S'market.pkl'
p273
sbsbsg50
(dp274
S'Wings'
p275
g1
(g53
g3
Ntp276
Rp277
(dp278
g57
(lp279
sg59
Nsg60
g275
sbsS'Tacos'
p280
g1
(g53
g3
Ntp281
Rp282
(dp283
g57
(lp284
sg59
Nsg60
g280
sbssbsg60
S'patron2'
p285
sg67
g1
(g68
g3
Ntp286
Rp287
(dp288
g12
g261
sg72
(lp289
sg15
g1
(g16
g3
Ntp290
Rp291
(dp292
g20
(dp293
sg43
g1
(g44
g3
Ntp294
Rp295
(dp296
g48
g273
sbsbsbsb(lp297
g277
assg43
g1
(g44
g3
Ntp298
Rp299
(dp300
g48
S'market.pkl'
p301
sbsbsg50
(dp302
S'Burritos'
p303
g1
(g53
g3
Ntp304
Rp305
(dp306
g57
(lp307
sg59
Nsg60
g303
sbsS'Wings'
p308
g1
(g53
g3
Ntp309
Rp310
(dp311
g57
(lp312
sg59
Nsg60
g308
sbssbsg60
S'fredo'
p313
sg67
g1
(g68
g3
Ntp314
Rp315
(dp316
g12
g5
sg72
(lp317
sg15
g1
(g16
g3
Ntp318
Rp319
(dp320
g20
(dp321
g1
(g2
g3
Ntp322
Rp323
(dp324
g7
g1
(g8
g3
Ntp325
Rp326
(dp327
g12
g323
sg13
(dp328
sg15
g1
(g16
g3
Ntp329
Rp330
(dp331
g20
(dp332
g1
(g2
g3
Ntp333
Rp334
(dp335
g7
g1
(g8
g3
Ntp336
Rp337
(dp338
g12
g334
sg13
(dp339
sg15
g1
(g16
g3
Ntp340
Rp341
(dp342
g20
g332
sg43
g1
(g44
g3
Ntp343
Rp344
(dp345
g48
S'market.pkl'
p346
sbsbsg50
(dp347
S'Wings'
p348
g1
(g53
g3
Ntp349
Rp350
(dp351
g57
(lp352
sg59
Nsg60
g348
sbsS'Tacos'
p353
g1
(g53
g3
Ntp354
Rp355
(dp356
g57
(lp357
sg59
Nsg60
g353
sbssbsg60
S'patron2'
p358
sg67
g1
(g68
g3
Ntp359
Rp360
(dp361
g12
g334
sg72
(lp362
sg15
g1
(g16
g3
Ntp363
Rp364
(dp365
g20
(dp366
sg43
g1
(g44
g3
Ntp367
Rp368
(dp369
g48
g346
sbsbsbsb(lp370
g350
assg43
g1
(g44
g3
Ntp371
Rp372
(dp373
g48
S'market.pkl'
p374
sbsbsg50
(dp375
S'Wings'
p376
g1
(g53
g3
Ntp377
Rp378
(dp379
g57
(lp380
sg59
Nsg60
g376
sbsS'Tacos'
p381
g1
(g53
g3
Ntp382
Rp383
(dp384
g57
(lp385
sg59
Nsg60
g381
sbssbsg60
S'fred'
p386
sg67
g1
(g68
g3
Ntp387
Rp388
(dp389
g12
g323
sg72
(lp390
sg15
g1
(g16
g3
Ntp391
Rp392
(dp393
g20
(dp394
g1
(g2
g3
Ntp395
Rp396
(dp397
g7
g1
(g8
g3
Ntp398
Rp399
(dp400
g12
g396
sg13
(dp401
sg15
g1
(g16
g3
Ntp402
Rp403
(dp404
g20
g394
sg43
g1
(g44
g3
Ntp405
Rp406
(dp407
g48
S'market.pkl'
p408
sbsbsg50
(dp409
S'Wings'
p410
g1
(g53
g3
Ntp411
Rp412
(dp413
g57
(lp414
sg59
Nsg60
g410
sbsS'Tacos'
p415
g1
(g53
g3
Ntp416
Rp417
(dp418
g57
(lp419
sg59
Nsg60
g415
sbssbsg60
S'patron2'
p420
sg67
g1
(g68
g3
Ntp421
Rp422
(dp423
g12
g396
sg72
(lp424
sg15
g1
(g16
g3
Ntp425
Rp426
(dp427
g20
(dp428
sg43
g1
(g44
g3
Ntp429
Rp430
(dp431
g48
g408
sbsbsbsb(lp432
g412
assg43
g1
(g44
g3
Ntp433
Rp434
(dp435
g48
g374
sbsbsbsb(lp436
g378
asg1
(g2
g3
Ntp437
Rp438
(dp439
g7
g1
(g8
g3
Ntp440
Rp441
(dp442
g12
g438
sg13
(dp443
sg15
g1
(g16
g3
Ntp444
Rp445
(dp446
g20
(dp447
g1
(g2
g3
Ntp448
Rp449
(dp450
g7
g1
(g8
g3
Ntp451
Rp452
(dp453
g12
g449
sg13
(dp454
sg15
g1
(g16
g3
Ntp455
Rp456
(dp457
g20
g447
sg43
g1
(g44
g3
Ntp458
Rp459
(dp460
g48
S'market.pkl'
p461
sbsbsg50
(dp462
S'Wings'
p463
g1
(g53
g3
Ntp464
Rp465
(dp466
g57
(lp467
sg59
Nsg60
g463
sbsS'Tacos'
p468
g1
(g53
g3
Ntp469
Rp470
(dp471
g57
(lp472
sg59
Nsg60
g468
sbssbsg60
S'patron2'
p473
sg67
g1
(g68
g3
Ntp474
Rp475
(dp476
g12
g449
sg72
(lp477
sg15
g1
(g16
g3
Ntp478
Rp479
(dp480
g20
(dp481
sg43
g1
(g44
g3
Ntp482
Rp483
(dp484
g48
g461
sbsbsbsb(lp485
g465
assg43
g1
(g44
g3
Ntp486
Rp487
(dp488
g48
g374
sbsbsg50
(dp489
g376
g1
(g53
g3
Ntp490
Rp491
(dp492
g57
(lp493
sg59
Nsg60
g376
sbsg381
g1
(g53
g3
Ntp494
Rp495
(dp496
g57
(lp497
sg59
Nsg60
g381
sbssbsg60
S'carl'
p498
sg67
g1
(g68
g3
Ntp499
Rp500
(dp501
g12
g438
sg72
(lp502
sg15
g1
(g16
g3
Ntp503
Rp504
(dp505
g20
(dp506
g1
(g2
g3
Ntp507
Rp508
(dp509
g7
g1
(g8
g3
Ntp510
Rp511
(dp512
g12
g508
sg13
(dp513
sg15
g1
(g16
g3
Ntp514
Rp515
(dp516
g20
g506
sg43
g1
(g44
g3
Ntp517
Rp518
(dp519
g48
S'market.pkl'
p520
sbsbsg50
(dp521
S'Wings'
p522
g1
(g53
g3
Ntp523
Rp524
(dp525
g57
(lp526
sg59
Nsg60
g522
sbsS'Tacos'
p527
g1
(g53
g3
Ntp528
Rp529
(dp530
g57
(lp531
sg59
Nsg60
g527
sbssbsg60
S'patron2'
p532
sg67
g1
(g68
g3
Ntp533
Rp534
(dp535
g12
g508
sg72
(lp536
sg15
g1
(g16
g3
Ntp537
Rp538
(dp539
g20
(dp540
sg43
g1
(g44
g3
Ntp541
Rp542
(dp543
g48
g520
sbsbsbsb(lp544
g524
assg43
g1
(g44
g3
Ntp545
Rp546
(dp547
g48
g374
sbsbsbsb(lp548
g491
asg1
(g2
g3
Ntp549
Rp550
(dp551
g7
g1
(g8
g3
Ntp552
Rp553
(dp554
g12
g550
sg13
(dp555
sg15
g1
(g16
g3
Ntp556
Rp557
(dp558
g20
g321
sg43
g1
(g44
g3
Ntp559
Rp560
(dp561
g48
S'market.pkl'
p562
sbsbsg50
(dp563
S'Wings'
p564
g1
(g53
g3
Ntp565
Rp566
(dp567
g57
(lp568
sg59
Nsg60
g564
sbsS'Tacos'
p569
g1
(g53
g3
Ntp570
Rp571
(dp572
g57
(lp573
sg59
Nsg60
g569
sbssbsg60
S'patron2'
p574
sg67
g1
(g68
g3
Ntp575
Rp576
(dp577
g12
g550
sg72
(lp578
sg15
g1
(g16
g3
Ntp579
Rp580
(dp581
g20
(dp582
sg43
g1
(g44
g3
Ntp583
Rp584
(dp585
g48
g562
sbsbsbsb(lp586
g566
assg43
g1
(g44
g3
Ntp587
Rp588
(dp589
g48
g301
sbsbsbsb(lp590
g310
ag305
asg1
(g2
g3
Ntp591
Rp592
(dp593
g7
g1
(g8
g3
Ntp594
Rp595
(dp596
g12
g592
sg13
(dp597
sg15
g1
(g16
g3
Ntp598
Rp599
(dp600
g20
(dp601
g1
(g2
g3
Ntp602
Rp603
(dp604
g7
g1
(g8
g3
Ntp605
Rp606
(dp607
g12
g603
sg13
(dp608
sg15
g1
(g16
g3
Ntp609
Rp610
(dp611
g20
g601
sg43
g1
(g44
g3
Ntp612
Rp613
(dp614
g48
S'market.pkl'
p615
sbsbsg50
(dp616
S'Wings'
p617
g1
(g53
g3
Ntp618
Rp619
(dp620
g57
(lp621
sg59
Nsg60
g617
sbsS'Tacos'
p622
g1
(g53
g3
Ntp623
Rp624
(dp625
g57
(lp626
sg59
Nsg60
g622
sbssbsg60
S'patron2'
p627
sg67
g1
(g68
g3
Ntp628
Rp629
(dp630
g12
g603
sg72
(lp631
sg15
g1
(g16
g3
Ntp632
Rp633
(dp634
g20
(dp635
sg43
g1
(g44
g3
Ntp636
Rp637
(dp638
g48
g615
sbsbsbsb(lp639
g619
assg43
g1
(g44
g3
Ntp640
Rp641
(dp642
g48
S'market.pkl'
p643
sbsbsg50
(dp644
S'Wings'
p645
g1
(g53
g3
Ntp646
Rp647
(dp648
g57
(lp649
sg59
Nsg60
g645
sbsS'Tacos'
p650
g1
(g53
g3
Ntp651
Rp652
(dp653
g57
(lp654
sg59
Nsg60
g650
sbssbsg60
S'carl'
p655
sg67
g1
(g68
g3
Ntp656
Rp657
(dp658
g12
g592
sg72
(lp659
sg15
g1
(g16
g3
Ntp660
Rp661
(dp662
g20
(dp663
g1
(g2
g3
Ntp664
Rp665
(dp666
g7
g1
(g8
g3
Ntp667
Rp668
(dp669
g12
g665
sg13
(dp670
sg15
g1
(g16
g3
Ntp671
Rp672
(dp673
g20
g663
sg43
g1
(g44
g3
Ntp674
Rp675
(dp676
g48
S'market.pkl'
p677
sbsbsg50
(dp678
S'Wings'
p679
g1
(g53
g3
Ntp680
Rp681
(dp682
g57
(lp683
sg59
Nsg60
g679
sbsS'Tacos'
p684
g1
(g53
g3
Ntp685
Rp686
(dp687
g57
(lp688
sg59
Nsg60
g684
sbssbsg60
S'patron2'
p689
sg67
g1
(g68
g3
Ntp690
Rp691
(dp692
g12
g665
sg72
(lp693
sg15
g1
(g16
g3
Ntp694
Rp695
(dp696
g20
(dp697
sg43
g1
(g44
g3
Ntp698
Rp699
(dp700
g48
g677
sbsbsbsb(lp701
g681
assg43
g1
(g44
g3
Ntp702
Rp703
(dp704
g48
g643
sbsbsbsb(lp705
g647
asg1
(g2
g3
Ntp706
Rp707
(dp708
g7
g1
(g8
g3
Ntp709
Rp710
(dp711
g12
g707
sg13
(dp712
sg15
g1
(g16
g3
Ntp713
Rp714
(dp715
g20
(dp716
g1
(g2
g3
Ntp717
Rp718
(dp719
g7
g1
(g8
g3
Ntp720
Rp721
(dp722
g12
g718
sg13
(dp723
sg15
g1
(g16
g3
Ntp724
Rp725
(dp726
g20
(dp727
g1
(g2
g3
Ntp728
Rp729
(dp730
g7
g1
(g8
g3
Ntp731
Rp732
(dp733
g12
g729
sg13
(dp734
sg15
g1
(g16
g3
Ntp735
Rp736
(dp737
g20
g727
sg43
g1
(g44
g3
Ntp738
Rp739
(dp740
g48
S'market.pkl'
p741
sbsbsg50
(dp742
S'Wings'
p743
g1
(g53
g3
Ntp744
Rp745
(dp746
g57
(lp747
sg59
Nsg60
g743
sbsS'Tacos'
p748
g1
(g53
g3
Ntp749
Rp750
(dp751
g57
(lp752
sg59
Nsg60
g748
sbssbsg60
S'patron2'
p753
sg67
g1
(g68
g3
Ntp754
Rp755
(dp756
g12
g729
sg72
(lp757
sg15
g1
(g16
g3
Ntp758
Rp759
(dp760
g20
(dp761
sg43
g1
(g44
g3
Ntp762
Rp763
(dp764
g48
g741
sbsbsbsb(lp765
g745
assg43
g1
(g44
g3
Ntp766
Rp767
(dp768
g48
S'market.pkl'
p769
sbsbsg50
(dp770
S'Wings'
p771
g1
(g53
g3
Ntp772
Rp773
(dp774
g57
(lp775
sg59
Nsg60
g771
sbsS'Tacos'
p776
g1
(g53
g3
Ntp777
Rp778
(dp779
g57
(lp780
sg59
Nsg60
g776
sbssbsg60
S'fred'
p781
sg67
g1
(g68
g3
Ntp782
Rp783
(dp784
g12
g718
sg72
(lp785
sg15
g1
(g16
g3
Ntp786
Rp787
(dp788
g20
(dp789
g1
(g2
g3
Ntp790
Rp791
(dp792
g7
g1
(g8
g3
Ntp793
Rp794
(dp795
g12
g791
sg13
(dp796
sg15
g1
(g16
g3
Ntp797
Rp798
(dp799
g20
g789
sg43
g1
(g44
g3
Ntp800
Rp801
(dp802
g48
S'market.pkl'
p803
sbsbsg50
(dp804
S'Wings'
p805
g1
(g53
g3
Ntp806
Rp807
(dp808
g57
(lp809
sg59
Nsg60
g805
sbsS'Tacos'
p810
g1
(g53
g3
Ntp811
Rp812
(dp813
g57
(lp814
sg59
Nsg60
g810
sbssbsg60
S'patron2'
p815
sg67
g1
(g68
g3
Ntp816
Rp817
(dp818
g12
g791
sg72
(lp819
sg15
g1
(g16
g3
Ntp820
Rp821
(dp822
g20
(dp823
sg43
g1
(g44
g3
Ntp824
Rp825
(dp826
g48
g803
sbsbsbsb(lp827
g807
assg43
g1
(g44
g3
Ntp828
Rp829
(dp830
g48
g769
sbsbsbsb(lp831
g773
asg1
(g2
g3
Ntp832
Rp833
(dp834
g7
g1
(g8
g3
Ntp835
Rp836
(dp837
g12
g833
sg13
(dp838
sg15
g1
(g16
g3
Ntp839
Rp840
(dp841
g20
g716
sg43
g1
(g44
g3
Ntp842
Rp843
(dp844
g48
S'market.pkl'
p845
sbsbsg50
(dp846
S'Wings'
p847
g1
(g53
g3
Ntp848
Rp849
(dp850
g57
(lp851
sg59
Nsg60
g847
sbsS'Tacos'
p852
g1
(g53
g3
Ntp853
Rp854
(dp855
g57
(lp856
sg59
Nsg60
g852
sbssbsg60
S'patron2'
p857
sg67
g1
(g68
g3
Ntp858
Rp859
(dp860
g12
g833
sg72
(lp861
sg15
g1
(g16
g3
Ntp862
Rp863
(dp864
g20
(dp865
sg43
g1
(g44
g3
Ntp866
Rp867
(dp868
g48
g845
sbsbsbsb(lp869
g849
asg1
(g2
g3
Ntp870
Rp871
(dp872
g7
g1
(g8
g3
Ntp873
Rp874
(dp875
g12
g871
sg13
(dp876
sg15
g1
(g16
g3
Ntp877
Rp878
(dp879
g20
(dp880
g1
(g2
g3
Ntp881
Rp882
(dp883
g7
g1
(g8
g3
Ntp884
Rp885
(dp886
g12
g882
sg13
(dp887
sg15
g1
(g16
g3
Ntp888
Rp889
(dp890
g20
g880
sg43
g1
(g44
g3
Ntp891
Rp892
(dp893
g48
S'market.pkl'
p894
sbsbsg50
(dp895
S'Wings'
p896
g1
(g53
g3
Ntp897
Rp898
(dp899
g57
(lp900
sg59
Nsg60
g896
sbsS'Tacos'
p901
g1
(g53
g3
Ntp902
Rp903
(dp904
g57
(lp905
sg59
Nsg60
g901
sbssbsg60
S'patron2'
p906
sg67
g1
(g68
g3
Ntp907
Rp908
(dp909
g12
g882
sg72
(lp910
sg15
g1
(g16
g3
Ntp911
Rp912
(dp913
g20
(dp914
sg43
g1
(g44
g3
Ntp915
Rp916
(dp917
g48
g894
sbsbsbsb(lp918
g898
assg43
g1
(g44
g3
Ntp919
Rp920
(dp921
g48
g769
sbsbsg50
(dp922
g771
g1
(g53
g3
Ntp923
Rp924
(dp925
g57
(lp926
sg59
Nsg60
g771
sbsg776
g1
(g53
g3
Ntp927
Rp928
(dp929
g57
(lp930
sg59
Nsg60
g776
sbssbsg60
S'carl'
p931
sg67
g1
(g68
g3
Ntp932
Rp933
(dp934
g12
g871
sg72
(lp935
sg15
g1
(g16
g3
Ntp936
Rp937
(dp938
g20
(dp939
g1
(g2
g3
Ntp940
Rp941
(dp942
g7
g1
(g8
g3
Ntp943
Rp944
(dp945
g12
g941
sg13
(dp946
sg15
g1
(g16
g3
Ntp947
Rp948
(dp949
g20
g939
sg43
g1
(g44
g3
Ntp950
Rp951
(dp952
g48
S'market.pkl'
p953
sbsbsg50
(dp954
S'Wings'
p955
g1
(g53
g3
Ntp956
Rp957
(dp958
g57
(lp959
sg59
Nsg60
g955
sbsS'Tacos'
p960
g1
(g53
g3
Ntp961
Rp962
(dp963
g57
(lp964
sg59
Nsg60
g960
sbssbsg60
S'patron2'
p965
sg67
g1
(g68
g3
Ntp966
Rp967
(dp968
g12
g941
sg72
(lp969
sg15
g1
(g16
g3
Ntp970
Rp971
(dp972
g20
(dp973
sg43
g1
(g44
g3
Ntp974
Rp975
(dp976
g48
g953
sbsbsbsb(lp977
g957
assg43
g1
(g44
g3
Ntp978
Rp979
(dp980
g48
g769
sbsbsbsb(lp981
g924
assg43
g1
(g44
g3
Ntp982
Rp983
(dp984
g48
g301
sbsbsg50
(dp985
g308
g1
(g53
g3
Ntp986
Rp987
(dp988
g57
(lp989
sg59
Nsg60
g308
sbsS'Tacos'
p990
g1
(g53
g3
Ntp991
Rp992
(dp993
g57
(lp994
sg59
Nsg60
g990
sbssbsg60
S'carlo'
p995
sg67
g1
(g68
g3
Ntp996
Rp997
(dp998
g12
g707
sg72
(lp999
sg15
g1
(g16
g3
Ntp1000
Rp1001
(dp1002
g20
(dp1003
g1
(g2
g3
Ntp1004
Rp1005
(dp1006
g7
g1
(g8
g3
Ntp1007
Rp1008
(dp1009
g12
g1005
sg13
(dp1010
sg15
g1
(g16
g3
Ntp1011
Rp1012
(dp1013
g20
(dp1014
g1
(g2
g3
Ntp1015
Rp1016
(dp1017
g7
g1
(g8
g3
Ntp1018
Rp1019
(dp1020
g12
g1016
sg13
(dp1021
sg15
g1
(g16
g3
Ntp1022
Rp1023
(dp1024
g20
g1014
sg43
g1
(g44
g3
Ntp1025
Rp1026
(dp1027
g48
S'market.pkl'
p1028
sbsbsg50
(dp1029
S'Wings'
p1030
g1
(g53
g3
Ntp1031
Rp1032
(dp1033
g57
(lp1034
sg59
Nsg60
g1030
sbsS'Tacos'
p1035
g1
(g53
g3
Ntp1036
Rp1037
(dp1038
g57
(lp1039
sg59
Nsg60
g1035
sbssbsg60
S'patron2'
p1040
sg67
g1
(g68
g3
Ntp1041
Rp1042
(dp1043
g12
g1016
sg72
(lp1044
sg15
g1
(g16
g3
Ntp1045
Rp1046
(dp1047
g20
(dp1048
sg43
g1
(g44
g3
Ntp1049
Rp1050
(dp1051
g48
g1028
sbsbsbsb(lp1052
g1032
assg43
g1
(g44
g3
Ntp1053
Rp1054
(dp1055
g48
S'market.pkl'
p1056
sbsbsg50
(dp1057
S'Wings'
p1058
g1
(g53
g3
Ntp1059
Rp1060
(dp1061
g57
(lp1062
sg59
Nsg60
g1058
sbsS'Tacos'
p1063
g1
(g53
g3
Ntp1064
Rp1065
(dp1066
g57
(lp1067
sg59
Nsg60
g1063
sbssbsg60
S'fred'
p1068
sg67
g1
(g68
g3
Ntp1069
Rp1070
(dp1071
g12
g1005
sg72
(lp1072
sg15
g1
(g16
g3
Ntp1073
Rp1074
(dp1075
g20
(dp1076
g1
(g2
g3
Ntp1077
Rp1078
(dp1079
g7
g1
(g8
g3
Ntp1080
Rp1081
(dp1082
g12
g1078
sg13
(dp1083
sg15
g1
(g16
g3
Ntp1084
Rp1085
(dp1086
g20
g1076
sg43
g1
(g44
g3
Ntp1087
Rp1088
(dp1089
g48
S'market.pkl'
p1090
sbsbsg50
(dp1091
S'Wings'
p1092
g1
(g53
g3
Ntp1093
Rp1094
(dp1095
g57
(lp1096
sg59
Nsg60
g1092
sbsS'Tacos'
p1097
g1
(g53
g3
Ntp1098
Rp1099
(dp1100
g57
(lp1101
sg59
Nsg60
g1097
sbssbsg60
S'patron2'
p1102
sg67
g1
(g68
g3
Ntp1103
Rp1104
(dp1105
g12
g1078
sg72
(lp1106
sg15
g1
(g16
g3
Ntp1107
Rp1108
(dp1109
g20
(dp1110
sg43
g1
(g44
g3
Ntp1111
Rp1112
(dp1113
g48
g1090
sbsbsbsb(lp1114
g1094
assg43
g1
(g44
g3
Ntp1115
Rp1116
(dp1117
g48
g1056
sbsbsbsb(lp1118
g1060
asg1
(g2
g3
Ntp1119
Rp1120
(dp1121
g7
g1
(g8
g3
Ntp1122
Rp1123
(dp1124
g12
g1120
sg13
(dp1125
sg15
g1
(g16
g3
Ntp1126
Rp1127
(dp1128
g20
(dp1129
g1
(g2
g3
Ntp1130
Rp1131
(dp1132
g7
g1
(g8
g3
Ntp1133
Rp1134
(dp1135
g12
g1131
sg13
(dp1136
sg15
g1
(g16
g3
Ntp1137
Rp1138
(dp1139
g20
g1129
sg43
g1
(g44
g3
Ntp1140
Rp1141
(dp1142
g48
S'market.pkl'
p1143
sbsbsg50
(dp1144
S'Wings'
p1145
g1
(g53
g3
Ntp1146
Rp1147
(dp1148
g57
(lp1149
sg59
Nsg60
g1145
sbsS'Tacos'
p1150
g1
(g53
g3
Ntp1151
Rp1152
(dp1153
g57
(lp1154
sg59
Nsg60
g1150
sbssbsg60
S'patron2'
p1155
sg67
g1
(g68
g3
Ntp1156
Rp1157
(dp1158
g12
g1131
sg72
(lp1159
sg15
g1
(g16
g3
Ntp1160
Rp1161
(dp1162
g20
(dp1163
sg43
g1
(g44
g3
Ntp1164
Rp1165
(dp1166
g48
g1143
sbsbsbsb(lp1167
g1147
assg43
g1
(g44
g3
Ntp1168
Rp1169
(dp1170
g48
g1056
sbsbsg50
(dp1171
g1058
g1
(g53
g3
Ntp1172
Rp1173
(dp1174
g57
(lp1175
sg59
Nsg60
g1058
sbsg1063
g1
(g53
g3
Ntp1176
Rp1177
(dp1178
g57
(lp1179
sg59
Nsg60
g1063
sbssbsg60
S'carl'
p1180
sg67
g1
(g68
g3
Ntp1181
Rp1182
(dp1183
g12
g1120
sg72
(lp1184
sg15
g1
(g16
g3
Ntp1185
Rp1186
(dp1187
g20
(dp1188
g1
(g2
g3
Ntp1189
Rp1190
(dp1191
g7
g1
(g8
g3
Ntp1192
Rp1193
(dp1194
g12
g1190
sg13
(dp1195
sg15
g1
(g16
g3
Ntp1196
Rp1197
(dp1198
g20
g1188
sg43
g1
(g44
g3
Ntp1199
Rp1200
(dp1201
g48
S'market.pkl'
p1202
sbsbsg50
(dp1203
S'Wings'
p1204
g1
(g53
g3
Ntp1205
Rp1206
(dp1207
g57
(lp1208
sg59
Nsg60
g1204
sbsS'Tacos'
p1209
g1
(g53
g3
Ntp1210
Rp1211
(dp1212
g57
(lp1213
sg59
Nsg60
g1209
sbssbsg60
S'patron2'
p1214
sg67
g1
(g68
g3
Ntp1215
Rp1216
(dp1217
g12
g1190
sg72
(lp1218
sg15
g1
(g16
g3
Ntp1219
Rp1220
(dp1221
g20
(dp1222
sg43
g1
(g44
g3
Ntp1223
Rp1224
(dp1225
g48
g1202
sbsbsbsb(lp1226
g1206
assg43
g1
(g44
g3
Ntp1227
Rp1228
(dp1229
g48
g1056
sbsbsbsb(lp1230
g1173
asg1
(g2
g3
Ntp1231
Rp1232
(dp1233
g7
g1
(g8
g3
Ntp1234
Rp1235
(dp1236
g12
g1232
sg13
(dp1237
sg15
g1
(g16
g3
Ntp1238
Rp1239
(dp1240
g20
g1003
sg43
g1
(g44
g3
Ntp1241
Rp1242
(dp1243
g48
S'market.pkl'
p1244
sbsbsg50
(dp1245
S'Wings'
p1246
g1
(g53
g3
Ntp1247
Rp1248
(dp1249
g57
(lp1250
sg59
Nsg60
g1246
sbsS'Tacos'
p1251
g1
(g53
g3
Ntp1252
Rp1253
(dp1254
g57
(lp1255
sg59
Nsg60
g1251
sbssbsg60
S'patron2'
p1256
sg67
g1
(g68
g3
Ntp1257
Rp1258
(dp1259
g12
g1232
sg72
(lp1260
sg15
g1
(g16
g3
Ntp1261
Rp1262
(dp1263
g20
(dp1264
sg43
g1
(g44
g3
Ntp1265
Rp1266
(dp1267
g48
g1244
sbsbsbsb(lp1268
g1248
assg43
g1
(g44
g3
Ntp1269
Rp1270
(dp1271
g48
g301
sbsbsbsb(lp1272
g987
ag992
asg1
(g2
g3
Ntp1273
Rp1274
(dp1275
g7
g1
(g8
g3
Ntp1276
Rp1277
(dp1278
g12
g1274
sg13
(dp1279
sg15
g1
(g16
g3
Ntp1280
Rp1281
(dp1282
g20
(dp1283
g1
(g2
g3
Ntp1284
Rp1285
(dp1286
g7
g1
(g8
g3
Ntp1287
Rp1288
(dp1289
g12
g1285
sg13
(dp1290
sg15
g1
(g16
g3
Ntp1291
Rp1292
(dp1293
g20
g1283
sg43
g1
(g44
g3
Ntp1294
Rp1295
(dp1296
g48
S'market.pkl'
p1297
sbsbsg50
(dp1298
S'Wings'
p1299
g1
(g53
g3
Ntp1300
Rp1301
(dp1302
g57
(lp1303
sg59
Nsg60
g1299
sbsS'Tacos'
p1304
g1
(g53
g3
Ntp1305
Rp1306
(dp1307
g57
(lp1308
sg59
Nsg60
g1304
sbssbsg60
S'patron2'
p1309
sg67
g1
(g68
g3
Ntp1310
Rp1311
(dp1312
g12
g1285
sg72
(lp1313
sg15
g1
(g16
g3
Ntp1314
Rp1315
(dp1316
g20
(dp1317
sg43
g1
(g44
g3
Ntp1318
Rp1319
(dp1320
g48
g1297
sbsbsbsb(lp1321
g1301
assg43
g1
(g44
g3
Ntp1322
Rp1323
(dp1324
g48
g643
sbsbsg50
(dp1325
g645
g1
(g53
g3
Ntp1326
Rp1327
(dp1328
g57
(lp1329
sg59
Nsg60
g645
sbsg650
g1
(g53
g3
Ntp1330
Rp1331
(dp1332
g57
(lp1333
sg59
Nsg60
g650
sbssbsg60
S'fred'
p1334
sg67
g1
(g68
g3
Ntp1335
Rp1336
(dp1337
g12
g1274
sg72
(lp1338
sg15
g1
(g16
g3
Ntp1339
Rp1340
(dp1341
g20
(dp1342
g1
(g2
g3
Ntp1343
Rp1344
(dp1345
g7
g1
(g8
g3
Ntp1346
Rp1347
(dp1348
g12
g1344
sg13
(dp1349
sg15
g1
(g16
g3
Ntp1350
Rp1351
(dp1352
g20
g1342
sg43
g1
(g44
g3
Ntp1353
Rp1354
(dp1355
g48
S'market.pkl'
p1356
sbsbsg50
(dp1357
S'Wings'
p1358
g1
(g53
g3
Ntp1359
Rp1360
(dp1361
g57
(lp1362
sg59
Nsg60
g1358
sbsS'Tacos'
p1363
g1
(g53
g3
Ntp1364
Rp1365
(dp1366
g57
(lp1367
sg59
Nsg60
g1363
sbssbsg60
S'patron2'
p1368
sg67
g1
(g68
g3
Ntp1369
Rp1370
(dp1371
g12
g1344
sg72
(lp1372
sg15
g1
(g16
g3
Ntp1373
Rp1374
(dp1375
g20
(dp1376
sg43
g1
(g44
g3
Ntp1377
Rp1378
(dp1379
g48
g1356
sbsbsbsb(lp1380
g1360
assg43
g1
(g44
g3
Ntp1381
Rp1382
(dp1383
g48
g643
sbsbsbsb(lp1384
g1327
asg1
(g2
g3
Ntp1385
Rp1386
(dp1387
g7
g1
(g8
g3
Ntp1388
Rp1389
(dp1390
g12
g1386
sg13
(dp1391
sg15
g1
(g16
g3
Ntp1392
Rp1393
(dp1394
g20
g0
sg43
g1
(g44
g3
Ntp1395
Rp1396
(dp1397
g48
S'market.pkl'
p1398
sbsbsg50
(dp1399
S'Wings'
p1400
g1
(g53
g3
Ntp1401
Rp1402
(dp1403
g57
(lp1404
sg59
Nsg60
g1400
sbsS'Tacos'
p1405
g1
(g53
g3
Ntp1406
Rp1407
(dp1408
g57
(lp1409
sg59
Nsg60
g1405
sbssbsg60
S'patron2'
p1410
sg67
g1
(g68
g3
Ntp1411
Rp1412
(dp1413
g12
g1386
sg72
(lp1414
sg15
g1
(g16
g3
Ntp1415
Rp1416
(dp1417
g20
(dp1418
sg43
g1
(g44
g3
Ntp1419
Rp1420
(dp1421
g48
g1398
sbsbsbsb(lp1422
g1402
as.